; Function Attrs: nounwind uwtable
define internal range(i32 0, 2) i32 @mem_free(ptr noundef readonly captures(address_is_null) %0) #1 {
  %2 = icmp eq ptr %0, null
  br i1 %2, label %21, label %3

3:                                                ; preds = %1
  %4 = getelementptr inbounds nuw i8, ptr %0, i64 64
  %5 = load ptr, ptr %4, align 8, !tbaa !3
  %6 = getelementptr inbounds nuw i8, ptr %0, i64 44
  %7 = load i32, ptr %6, align 4, !tbaa !35
  %.not.i = icmp eq i32 %7, 0
  br i1 %.not.i, label %mem_buf_free.exit, label %8

8:                                                ; preds = %3
  %9 = getelementptr inbounds nuw i8, ptr %0, i64 40
  %10 = load i32, ptr %9, align 8, !tbaa !30
  %.not11.i = icmp eq i32 %10, 0
  %.not12.i = icmp eq ptr %5, null
  %or.cond = select i1 %.not11.i, i1 true, i1 %.not12.i
  br i1 %or.cond, label %mem_buf_free.exit, label %11

11:                                               ; preds = %8
  %12 = load ptr, ptr %5, align 8, !tbaa !17
  %13 = getelementptr inbounds nuw i8, ptr %0, i64 48
  %14 = load i32, ptr %13, align 8, !tbaa !28
  %15 = and i32 %14, 512
  %.not13.i = icmp eq i32 %15, 0
  br i1 %.not13.i, label %18, label %16

16:                                               ; preds = %11
  %17 = getelementptr inbounds nuw i8, ptr %12, i64 8
  store ptr null, ptr %17, align 8, !tbaa !20
  br label %18

18:                                               ; preds = %16, %11
  tail call void @BUF_MEM_free(ptr noundef %12) #7
  br label %mem_buf_free.exit

mem_buf_free.exit:                                ; preds = %18, %8, %3
  %19 = getelementptr inbounds nuw i8, ptr %5, i64 8
  %20 = load ptr, ptr %19, align 8, !tbaa !24
  tail call void @CRYPTO_free(ptr noundef %20, ptr noundef nonnull @.str, i32 noundef 152) #7
  tail call void @CRYPTO_free(ptr noundef %5, ptr noundef nonnull @.str, i32 noundef 153) #7
  br label %21

21:                                               ; preds = %1, %mem_buf_free.exit
  %.0 = phi i32 [ 1, %mem_buf_free.exit ], [ 0, %1 ]
  ret i32 %.0
}